target datalayout = "e-m:e-p270:32:32-p271:32:32-p272:64:64-i64:64-i128:128-f80:128-n8:16:32:64-S128"
target triple = "x86_64-pc-linux-gnu"

%struct._value_string = type { i32, ptr }
%struct._packet_info = type { ptr, ptr, i32, i32, %struct.nstime_t, %struct.nstime_t, %struct.nstime_t, i8, ptr, ptr, ptr, ptr, %struct._address, %struct._address, %struct._address, %struct._address, %struct._address, %struct._address, i32, ptr, i8, [3 x i8], %struct.anon, i32, i32, i32, i32, ptr, i8, ptr, ptr, i16, i16, i32, i32, i16, i32, i32, ptr, ptr, ptr, i8, i8, i16, i16, i16, i32, i16, i16, ptr, ptr, ptr, ptr, ptr, i32, i32 }
%struct.nstime_t = type { i64, i32 }
%struct._address = type { i32, i32, ptr, ptr }
%struct.anon = type { i8, [3 x i8] }

@hf_pn_dcp_suboption_ip = internal global i32 0, align 4
@hf_pn_dcp_suboption_device = internal global i32 0, align 4
@hf_pn_dcp_suboption_dhcp = internal global i32 0, align 4
@hf_pn_dcp_suboption_control = internal global i32 0, align 4
@hf_pn_dcp_suboption_deviceinitiative = internal global i32 0, align 4
@hf_pn_dcp_suboption_tsn = internal global i32 0, align 4
@hf_pn_dcp_suboption_all = internal global i32 0, align 4
@hf_pn_dcp_suboption_manuf = internal global i32 0, align 4
@pn_dcp_suboption_manuf = internal constant [1 x %struct._value_string] zeroinitializer, align 16
@.str.119 = private unnamed_addr constant [8 x i8] c"Unknown\00", align 1
@pn_dcp_suboption_deviceinitiative = internal constant [3 x { i32, [4 x i8], ptr }] [{ i32, [4 x i8], ptr } { i32 0, [4 x i8] zeroinitializer, ptr @.str.6 }, { i32, [4 x i8], ptr } { i32 1, [4 x i8] zeroinitializer, ptr @.str.143 }, { i32, [4 x i8], ptr } zeroinitializer], align 16
@pn_dcp_suboption_all = internal constant [2 x { i32, [4 x i8], ptr }] [{ i32, [4 x i8], ptr } { i32 255, [4 x i8] zeroinitializer, ptr @.str.226 }, { i32, [4 x i8], ptr } zeroinitializer], align 16
@.str.234 = private unnamed_addr constant [22 x i8] c", Status from %s - %s\00", align 1
@.str.235 = private unnamed_addr constant [5 x i8] c", %s\00", align 1

; Function Attrs: null_pointer_is_valid sspstrong uwtable
define internal i32 @dissect_PNDCP_Option(ptr noundef %0, i32 noundef %1, ptr noundef %2, ptr noundef %3, ptr noundef %4, i32 noundef %5, i1 noundef zeroext %6) #0 {
  %8 = alloca ptr, align 8
  %9 = alloca i32, align 4
  %10 = alloca ptr, align 8
  %11 = alloca ptr, align 8
  %12 = alloca ptr, align 8
  %13 = alloca i32, align 4
  %14 = alloca i8, align 1
  %15 = alloca i8, align 1
  %16 = alloca i8, align 1
  %17 = alloca ptr, align 8
  store ptr %0, ptr %8, align 8
  store i32 %1, ptr %9, align 4
  store ptr %2, ptr %10, align 8
  store ptr %3, ptr %11, align 8
  store ptr %4, ptr %12, align 8
  store i32 %5, ptr %13, align 4
  %18 = zext i1 %6 to i8
  store i8 %18, ptr %14, align 1
  call void @llvm.lifetime.start.p0(i64 1, ptr %15) #5
  call void @llvm.lifetime.start.p0(i64 1, ptr %16) #5
  call void @llvm.lifetime.start.p0(i64 8, ptr %17) #5
  %19 = load ptr, ptr %8, align 8
  %20 = load i32, ptr %9, align 4
  %21 = load ptr, ptr %10, align 8
  %22 = load ptr, ptr %11, align 8
  %23 = load i32, ptr %13, align 4
  %24 = call i32 @dissect_pn_uint8(ptr noundef %19, i32 noundef %20, ptr noundef %21, ptr noundef %22, i32 noundef %23, ptr noundef %15)
  store i32 %24, ptr %9, align 4
  %25 = load i8, ptr %15, align 1
  %26 = zext i8 %25 to i32
  switch i32 %26, label %76 [
    i32 1, label %27
    i32 2, label %34
    i32 3, label %41
    i32 5, label %48
    i32 6, label %55
    i32 7, label %62
    i32 255, label %69
  ]

27:                                               ; preds = %7
  %28 = load ptr, ptr %8, align 8
  %29 = load i32, ptr %9, align 4
  %30 = load ptr, ptr %10, align 8
  %31 = load ptr, ptr %11, align 8
  %32 = load i32, ptr @hf_pn_dcp_suboption_ip, align 4
  %33 = call i32 @dissect_pn_uint8(ptr noundef %28, i32 noundef %29, ptr noundef %30, ptr noundef %31, i32 noundef %32, ptr noundef %16)
  store i32 %33, ptr %9, align 4
  store ptr @pn_dcp_suboption_ip, ptr %17, align 8
  br label %83

34:                                               ; preds = %7
  %35 = load ptr, ptr %8, align 8
  %36 = load i32, ptr %9, align 4
  %37 = load ptr, ptr %10, align 8
  %38 = load ptr, ptr %11, align 8
  %39 = load i32, ptr @hf_pn_dcp_suboption_device, align 4
  %40 = call i32 @dissect_pn_uint8(ptr noundef %35, i32 noundef %36, ptr noundef %37, ptr noundef %38, i32 noundef %39, ptr noundef %16)
  store i32 %40, ptr %9, align 4
  store ptr @pn_dcp_suboption_device, ptr %17, align 8
  br label %83

41:                                               ; preds = %7
  %42 = load ptr, ptr %8, align 8
  %43 = load i32, ptr %9, align 4
  %44 = load ptr, ptr %10, align 8
  %45 = load ptr, ptr %11, align 8
  %46 = load i32, ptr @hf_pn_dcp_suboption_dhcp, align 4
  %47 = call i32 @dissect_pn_uint8(ptr noundef %42, i32 noundef %43, ptr noundef %44, ptr noundef %45, i32 noundef %46, ptr noundef %16)
  store i32 %47, ptr %9, align 4
  store ptr @pn_dcp_suboption_dhcp, ptr %17, align 8
  br label %83

48:                                               ; preds = %7
  %49 = load ptr, ptr %8, align 8
  %50 = load i32, ptr %9, align 4
  %51 = load ptr, ptr %10, align 8
  %52 = load ptr, ptr %11, align 8
  %53 = load i32, ptr @hf_pn_dcp_suboption_control, align 4
  %54 = call i32 @dissect_pn_uint8(ptr noundef %49, i32 noundef %50, ptr noundef %51, ptr noundef %52, i32 noundef %53, ptr noundef %16)
  store i32 %54, ptr %9, align 4
  store ptr @pn_dcp_suboption_control, ptr %17, align 8
  br label %83

55:                                               ; preds = %7
  %56 = load ptr, ptr %8, align 8
  %57 = load i32, ptr %9, align 4
  %58 = load ptr, ptr %10, align 8
  %59 = load ptr, ptr %11, align 8
  %60 = load i32, ptr @hf_pn_dcp_suboption_deviceinitiative, align 4
  %61 = call i32 @dissect_pn_uint8(ptr noundef %56, i32 noundef %57, ptr noundef %58, ptr noundef %59, i32 noundef %60, ptr noundef %16)
  store i32 %61, ptr %9, align 4
  store ptr @pn_dcp_suboption_deviceinitiative, ptr %17, align 8
  br label %83

62:                                               ; preds = %7
  %63 = load ptr, ptr %8, align 8
  %64 = load i32, ptr %9, align 4
  %65 = load ptr, ptr %10, align 8
  %66 = load ptr, ptr %11, align 8
  %67 = load i32, ptr @hf_pn_dcp_suboption_tsn, align 4
  %68 = call i32 @dissect_pn_uint8(ptr noundef %63, i32 noundef %64, ptr noundef %65, ptr noundef %66, i32 noundef %67, ptr noundef %16)
  store i32 %68, ptr %9, align 4
  store ptr @pn_dcp_suboption_tsn, ptr %17, align 8
  br label %83

69:                                               ; preds = %7
  %70 = load ptr, ptr %8, align 8
  %71 = load i32, ptr %9, align 4
  %72 = load ptr, ptr %10, align 8
  %73 = load ptr, ptr %11, align 8
  %74 = load i32, ptr @hf_pn_dcp_suboption_all, align 4
  %75 = call i32 @dissect_pn_uint8(ptr noundef %70, i32 noundef %71, ptr noundef %72, ptr noundef %73, i32 noundef %74, ptr noundef %16)
  store i32 %75, ptr %9, align 4
  store ptr @pn_dcp_suboption_all, ptr %17, align 8
  br label %83

76:                                               ; preds = %7
  %77 = load ptr, ptr %8, align 8
  %78 = load i32, ptr %9, align 4
  %79 = load ptr, ptr %10, align 8
  %80 = load ptr, ptr %11, align 8
  %81 = load i32, ptr @hf_pn_dcp_suboption_manuf, align 4
  %82 = call i32 @dissect_pn_uint8(ptr noundef %77, i32 noundef %78, ptr noundef %79, ptr noundef %80, i32 noundef %81, ptr noundef %16)
  store i32 %82, ptr %9, align 4
  store ptr @pn_dcp_suboption_manuf, ptr %17, align 8
  br label %83

83:                                               ; preds = %76, %69, %62, %55, %48, %41, %34, %27
  %84 = load ptr, ptr %12, align 8
  %85 = load i8, ptr %15, align 1
  %86 = zext i8 %85 to i32
  %87 = call ptr @rval_to_str_const(i32 noundef %86, ptr noundef @pn_dcp_option, ptr noundef @.str.119)
  %88 = load i8, ptr %16, align 1
  %89 = zext i8 %88 to i32
  %90 = load ptr, ptr %17, align 8
  %91 = call ptr @val_to_str_const(i32 noundef %89, ptr noundef %90, ptr noundef @.str.119)
  call void (ptr, ptr, ...) @proto_item_append_text(ptr noundef %84, ptr noundef @.str.234, ptr noundef %87, ptr noundef %91)
  %92 = load i8, ptr %14, align 1, !range !6, !noundef !7
  %93 = trunc i8 %92 to i1
  br i1 %93, label %94, label %102

94:                                               ; preds = %83
  %95 = load ptr, ptr %10, align 8
  %96 = getelementptr inbounds nuw %struct._packet_info, ptr %95, i32 0, i32 1
  %97 = load ptr, ptr %96, align 8
  %98 = load i8, ptr %16, align 1
  %99 = zext i8 %98 to i32
  %100 = load ptr, ptr %17, align 8
  %101 = call ptr @val_to_str_const(i32 noundef %99, ptr noundef %100, ptr noundef @.str.119)
  call void (ptr, i32, ptr, ...) @col_append_fstr(ptr noundef %97, i32 noundef 25, ptr noundef @.str.235, ptr noundef %101)
  br label %102

102:                                              ; preds = %94, %83
  %103 = load i32, ptr %9, align 4
  call void @llvm.lifetime.end.p0(i64 8, ptr %17) #5
  call void @llvm.lifetime.end.p0(i64 1, ptr %16) #5
  call void @llvm.lifetime.end.p0(i64 1, ptr %15) #5
  ret i32 %103
}