; Function Attrs: null_pointer_is_valid sspstrong uwtable
define internal fastcc i32 @dissect_PNDCP_Option(ptr noundef %0, i32 noundef %1, ptr noundef %2, ptr noundef %3, ptr noundef %4, i32 noundef %5, i1 noundef zeroext %6) unnamed_addr #0 {
  %8 = alloca i8, align 1
  %9 = alloca i8, align 1
  call void @llvm.lifetime.start.p0(i64 1, ptr nonnull %8) #4
  call void @llvm.lifetime.start.p0(i64 1, ptr nonnull %9) #4
  %10 = call i32 @dissect_pn_uint8(ptr noundef %0, i32 noundef %1, ptr noundef %2, ptr noundef %3, i32 noundef %5, ptr noundef nonnull %8)
  %11 = load i8, ptr %8, align 1
  %switch.tableidx = add i8 %11, 1
  %12 = icmp ult i8 %switch.tableidx, 9
  br i1 %12, label %switch.lookup, label %15

switch.lookup:                                    ; preds = %7
  %13 = zext nneg i8 %switch.tableidx to i64
  %switch.gep = getelementptr inbounds nuw [9 x ptr], ptr @switch.table.dissect_PNDCP_Option, i64 0, i64 %13
  %switch.load = load ptr, ptr %switch.gep, align 8
  %14 = zext nneg i8 %switch.tableidx to i64
  %switch.gep43 = getelementptr inbounds nuw [9 x ptr], ptr @switch.table.dissect_PNDCP_Option.1, i64 0, i64 %14
  %switch.load44 = load ptr, ptr %switch.gep43, align 8
  br label %15

15:                                               ; preds = %7, %switch.lookup
  %hf_pn_dcp_suboption_manuf.sink = phi ptr [ %switch.load, %switch.lookup ], [ @hf_pn_dcp_suboption_manuf, %7 ]
  %.0 = phi ptr [ %switch.load44, %switch.lookup ], [ @pn_dcp_suboption_manuf, %7 ]
  %16 = load i32, ptr %hf_pn_dcp_suboption_manuf.sink, align 4
  %17 = call i32 @dissect_pn_uint8(ptr noundef %0, i32 noundef %10, ptr noundef %2, ptr noundef %3, i32 noundef %16, ptr noundef nonnull %9)
  %18 = load i8, ptr %8, align 1
  %19 = zext i8 %18 to i32
  %20 = call ptr @rval_to_str_const(i32 noundef %19, ptr noundef nonnull @pn_dcp_option, ptr noundef nonnull @.str.119)
  %21 = load i8, ptr %9, align 1
  %22 = zext i8 %21 to i32
  %23 = call ptr @val_to_str_const(i32 noundef %22, ptr noundef nonnull %.0, ptr noundef nonnull @.str.119)
  call void (ptr, ptr, ...) @proto_item_append_text(ptr noundef %4, ptr noundef nonnull @.str.234, ptr noundef %20, ptr noundef %23)
  br i1 %6, label %24, label %30

24:                                               ; preds = %15
  %25 = getelementptr inbounds nuw i8, ptr %2, i64 8
  %26 = load ptr, ptr %25, align 8
  %27 = load i8, ptr %9, align 1
  %28 = zext i8 %27 to i32
  %29 = call ptr @val_to_str_const(i32 noundef %28, ptr noundef nonnull %.0, ptr noundef nonnull @.str.119)
  call void (ptr, i32, ptr, ...) @col_append_fstr(ptr noundef %26, i32 noundef 25, ptr noundef nonnull @.str.235, ptr noundef %29)
  br label %30

30:                                               ; preds = %24, %15
  call void @llvm.lifetime.end.p0(i64 1, ptr nonnull %9) #4
  call void @llvm.lifetime.end.p0(i64 1, ptr nonnull %8) #4
  ret i32 %17
}